; Function Attrs: mustprogress nounwind uwtable
define hidden void @_ZN23ZThreadLocalAllocBuffer10initializeEv() local_unnamed_addr #0 align 2 {
  %1 = load i8, ptr @UseTLAB, align 1
  %2 = trunc i8 %1 to i1
  br i1 %2, label %3, label %_ZN23ZThreadLocalAllocBuffer16reset_statisticsEv.exit

3:                                                ; preds = %0
  %4 = tail call noundef ptr @_Z12AllocateHeapm8MEMFLAGSN17AllocFailStrategy13AllocFailEnumE(i64 noundef 8, i8 noundef zeroext 5, i32 noundef 0) #4
  %5 = load i64, ptr @_ZN13ZValueStorageI17ZPerWorkerStorageE4_topE, align 8
  %6 = add i64 %5, 7
  %7 = and i64 %6, -8
  %8 = add i64 %7, 64
  store i64 %8, ptr @_ZN13ZValueStorageI17ZPerWorkerStorageE4_topE, align 8
  %9 = load i64, ptr @_ZN13ZValueStorageI17ZPerWorkerStorageE4_endE, align 8
  %10 = icmp ult i64 %8, %9
  br i1 %10, label %_ZN13ZValueStorageI17ZPerWorkerStorageE5allocEm.exit.i, label %tailrecurse.i.i

tailrecurse.i.i:                                  ; preds = %3, %tailrecurse.i.i
  %11 = load i32, ptr @ConcGCThreads, align 4
  %12 = zext i32 %11 to i64
  %13 = shl nuw nsw i64 %12, 12
  %14 = tail call noundef i64 @_ZN6ZUtils13alloc_alignedEmm(i64 noundef 4096, i64 noundef %13) #4
  %15 = add i64 %14, 4096
  store i64 %15, ptr @_ZN13ZValueStorageI17ZPerWorkerStorageE4_endE, align 8
  %16 = add i64 %14, 7
  %17 = and i64 %16, -8
  %18 = add i64 %17, 64
  store i64 %18, ptr @_ZN13ZValueStorageI17ZPerWorkerStorageE4_topE, align 8
  %19 = icmp ult i64 %18, %15
  br i1 %19, label %_ZN13ZValueStorageI17ZPerWorkerStorageE5allocEm.exit.i, label %tailrecurse.i.i

_ZN13ZValueStorageI17ZPerWorkerStorageE5allocEm.exit.i: ; preds = %tailrecurse.i.i, %3
  %.lcssa.i.i = phi i64 [ %7, %3 ], [ %17, %tailrecurse.i.i ]
  store i64 %.lcssa.i.i, ptr %4, align 8
  %20 = load i32, ptr @ConcGCThreads, align 4
  %.not.i = icmp eq i32 %20, 0
  br i1 %.not.i, label %_ZN6ZValueI17ZPerWorkerStorage21ThreadLocalAllocStatsEC2Ev.exit.thread, label %.lr.ph.i

_ZN6ZValueI17ZPerWorkerStorage21ThreadLocalAllocStatsEC2Ev.exit.thread: ; preds = %_ZN13ZValueStorageI17ZPerWorkerStorageE5allocEm.exit.i
  store ptr %4, ptr @_ZN23ZThreadLocalAllocBuffer6_statsE, align 8
  br label %_ZN23ZThreadLocalAllocBuffer16reset_statisticsEv.exit

.lr.ph.i:                                         ; preds = %_ZN13ZValueStorageI17ZPerWorkerStorageE5allocEm.exit.i, %.lr.ph.i
  %indvars.iv.i = phi i64 [ %indvars.iv.next.i, %.lr.ph.i ], [ 0, %_ZN13ZValueStorageI17ZPerWorkerStorageE5allocEm.exit.i ]
  %indvars.iv.next.i = add nuw nsw i64 %indvars.iv.i, 1
  %21 = load i64, ptr %4, align 8
  %22 = shl nuw nsw i64 %indvars.iv.i, 12
  %23 = add i64 %21, %22
  %24 = inttoptr i64 %23 to ptr
  tail call void @_ZN21ThreadLocalAllocStatsC1Ev(ptr noundef nonnull align 8 dereferenceable(64) %24) #4
  %25 = load i32, ptr @ConcGCThreads, align 4
  %26 = zext i32 %25 to i64
  %27 = icmp ult i64 %indvars.iv.next.i, %26
  br i1 %27, label %.lr.ph.i, label %_ZN6ZValueI17ZPerWorkerStorage21ThreadLocalAllocStatsEC2Ev.exit, !llvm.loop !6

_ZN6ZValueI17ZPerWorkerStorage21ThreadLocalAllocStatsEC2Ev.exit: ; preds = %.lr.ph.i
  %28 = icmp ne i32 %25, 0
  store ptr %4, ptr @_ZN23ZThreadLocalAllocBuffer6_statsE, align 8
  %29 = load i8, ptr @UseTLAB, align 1
  %30 = trunc i8 %29 to i1
  %or.cond.not = and i1 %28, %30
  br i1 %or.cond.not, label %.lr.ph.i4, label %_ZN23ZThreadLocalAllocBuffer16reset_statisticsEv.exit

.lr.ph.i4:                                        ; preds = %_ZN6ZValueI17ZPerWorkerStorage21ThreadLocalAllocStatsEC2Ev.exit, %.lr.ph.i4
  %indvars.iv.i5 = phi i64 [ %indvars.iv.next.i6, %.lr.ph.i4 ], [ 0, %_ZN6ZValueI17ZPerWorkerStorage21ThreadLocalAllocStatsEC2Ev.exit ]
  %indvars.iv.next.i6 = add nuw nsw i64 %indvars.iv.i5, 1
  %31 = load i64, ptr %4, align 8
  %32 = shl nuw nsw i64 %indvars.iv.i5, 12
  %33 = add i64 %31, %32
  %34 = inttoptr i64 %33 to ptr
  tail call void @_ZN21ThreadLocalAllocStats5resetEv(ptr noundef nonnull align 8 dereferenceable(64) %34) #4
  %35 = load i32, ptr @ConcGCThreads, align 4
  %36 = zext i32 %35 to i64
  %37 = icmp ult i64 %indvars.iv.next.i6, %36
  br i1 %37, label %.lr.ph.i4, label %_ZN23ZThreadLocalAllocBuffer16reset_statisticsEv.exit, !llvm.loop !8

_ZN23ZThreadLocalAllocBuffer16reset_statisticsEv.exit: ; preds = %.lr.ph.i4, %_ZN6ZValueI17ZPerWorkerStorage21ThreadLocalAllocStatsEC2Ev.exit.thread, %_ZN6ZValueI17ZPerWorkerStorage21ThreadLocalAllocStatsEC2Ev.exit, %0
  ret void
}